; ModuleID = 'source-C-CXX/32/396.c'
source_filename = "source-C-CXX/32/396.c"
target datalayout = "e-m:e-p270:32:32-p271:32:32-p272:64:64-i64:64-f80:128-n8:16:32:64-S128"
target triple = "x86_64-pc-linux-gnu"

@.str = private unnamed_addr constant [3 x i8] c"%d\00", align 1

; Function Attrs: nounwind sspstrong uwtable
define dso_local i32 @main() local_unnamed_addr #0 {
  %1 = alloca [3000 x i8], align 16
  %2 = alloca [30000 x i8], align 16
  %3 = alloca i32, align 4
  %4 = getelementptr inbounds [3000 x i8], [3000 x i8]* %1, i64 0, i64 0
  call void @llvm.lifetime.start.p0i8(i64 3000, i8* nonnull %4) #4
  %5 = getelementptr inbounds [30000 x i8], [30000 x i8]* %2, i64 0, i64 0
  call void @llvm.lifetime.start.p0i8(i64 30000, i8* nonnull %5) #4
  %6 = bitcast i32* %3 to i8*
  call void @llvm.lifetime.start.p0i8(i64 4, i8* nonnull %6) #4
  %7 = call i32 (i8*, ...) @__isoc99_scanf(i8* getelementptr inbounds ([3 x i8], [3 x i8]* @.str, i64 0, i64 0), i32* nonnull %3)
  %8 = load i32, i32* %3, align 4, !tbaa !5
  %9 = icmp slt i32 %8, 0
  br i1 %9, label %32, label %10

10:                                               ; preds = %0, %25
  %11 = phi i32 [ %29, %25 ], [ 0, %0 ]
  %12 = call i32 (i8*, ...) bitcast (i32 (...)* @gets to i32 (i8*, ...)*)(i8* nonnull %4) #4
  br label %13

13:                                               ; preds = %23, %10
  %14 = phi i64 [ %24, %23 ], [ 0, %10 ]
  %15 = getelementptr inbounds [3000 x i8], [3000 x i8]* %1, i64 0, i64 %14
  %16 = load i8, i8* %15, align 1, !tbaa !9
  switch i8 %16, label %23 [
    i8 0, label %25
    i8 65, label %20
    i8 84, label %17
    i8 67, label %18
    i8 71, label %19
  ]

17:                                               ; preds = %13
  br label %20

18:                                               ; preds = %13
  br label %20

19:                                               ; preds = %13
  br label %20

20:                                               ; preds = %13, %19, %18, %17
  %21 = phi i8 [ 65, %17 ], [ 71, %18 ], [ 67, %19 ], [ 84, %13 ]
  %22 = getelementptr inbounds [30000 x i8], [30000 x i8]* %2, i64 0, i64 %14
  store i8 %21, i8* %22, align 1, !tbaa !9
  br label %23

23:                                               ; preds = %20, %13
  %24 = add nuw i64 %14, 1
  br label %13, !llvm.loop !10

25:                                               ; preds = %13
  %26 = and i64 %14, 4294967295
  %27 = getelementptr inbounds [30000 x i8], [30000 x i8]* %2, i64 0, i64 %26
  store i8 0, i8* %27, align 1, !tbaa !9
  %28 = call i32 @puts(i8* nonnull %5)
  %29 = add nuw nsw i32 %11, 1
  %30 = load i32, i32* %3, align 4, !tbaa !5
  %31 = icmp slt i32 %11, %30
  br i1 %31, label %10, label %32, !llvm.loop !12

32:                                               ; preds = %25, %0
  call void @llvm.lifetime.end.p0i8(i64 4, i8* nonnull %6) #4
  call void @llvm.lifetime.end.p0i8(i64 30000, i8* nonnull %5) #4
  call void @llvm.lifetime.end.p0i8(i64 3000, i8* nonnull %4) #4
  ret i32 0
}

; Function Attrs: argmemonly mustprogress nofree nosync nounwind willreturn
declare void @llvm.lifetime.start.p0i8(i64 immarg, i8* nocapture) #1

; Function Attrs: nofree nounwind
declare noundef i32 @__isoc99_scanf(i8* nocapture noundef readonly, ...) local_unnamed_addr #2

declare i32 @gets(...) local_unnamed_addr #3

; Function Attrs: nofree nounwind
declare noundef i32 @puts(i8* nocapture noundef readonly) local_unnamed_addr #2

; Function Attrs: argmemonly mustprogress nofree nosync nounwind willreturn
declare void @llvm.lifetime.end.p0i8(i64 immarg, i8* nocapture) #1


!llvm.module.flags = !{!0, !1, !2, !3}
!llvm.ident = !{!4}

!0 = !{i32 1, !"wchar_size", i32 4}
!1 = !{i32 7, !"PIC Level", i32 2}
!2 = !{i32 7, !"PIE Level", i32 2}
!3 = !{i32 7, !"uwtable", i32 1}
!4 = !{!"clang version 13.0.0"}
!5 = !{!6, !6, i64 0}
!6 = !{!"int", !7, i64 0}
!7 = !{!"omnipotent char", !8, i64 0}
!8 = !{!"Simple C/C++ TBAA"}
!9 = !{!7, !7, i64 0}
!10 = distinct !{!10, !11}
!11 = !{!"llvm.loop.mustprogress"}
!12 = distinct !{!12, !11}
